; Function Attrs: mustprogress uwtable
define noundef range(i32 0, 25) i32 @_Z12tMPI_WaitalliPP9tmpi_req_P12tmpi_status_(i32 noundef %0, ptr noundef captures(none) %1, ptr noundef %2) local_unnamed_addr #0 {
  %4 = tail call noundef ptr @_Z23tMPI_Thread_getspecific17tMPI_Thread_key_t(ptr noundef nonnull byval(%struct.tMPI_Thread_key_t) align 8 @id_key)
  %5 = getelementptr inbounds nuw i8, ptr %4, i64 360
  %6 = icmp sgt i32 %0, 0
  br i1 %6, label %.lr.ph.preheader.i, label %.preheader.i

.lr.ph.preheader.i:                               ; preds = %3
  %wide.trip.count.i = zext nneg i32 %0 to i64
  br label %.lr.ph.i

.preheader.i:                                     ; preds = %16, %3
  %.024.lcssa.i = phi ptr [ null, %3 ], [ %.125.i, %16 ]
  %7 = tail call noundef i32 @_Z15tMPI_Test_multiP11tmpi_threadP9tmpi_req_Pi(ptr noundef %4, ptr noundef %.024.lcssa.i, ptr noundef null)
  %.not.us.not.i = icmp eq i32 %7, 0
  br i1 %.not.us.not.i, label %.lr.ph36.i, label %_ZL19tMPI_Test_multi_reqP11tmpi_threadiPP9tmpi_req_ii.exit

.lr.ph.i:                                         ; preds = %16, %.lr.ph.preheader.i
  %indvars.iv.i = phi i64 [ 0, %.lr.ph.preheader.i ], [ %indvars.iv.next.i, %16 ]
  %.02333.i = phi ptr [ null, %.lr.ph.preheader.i ], [ %.1.i, %16 ]
  %.02432.i = phi ptr [ null, %.lr.ph.preheader.i ], [ %.125.i, %16 ]
  %8 = getelementptr inbounds nuw ptr, ptr %1, i64 %indvars.iv.i
  %9 = load ptr, ptr %8, align 8, !tbaa !3
  %.not27.i = icmp eq ptr %9, null
  br i1 %.not27.i, label %16, label %10

10:                                               ; preds = %.lr.ph.i
  %.not28.i = icmp eq ptr %.02432.i, null
  %spec.select.i = select i1 %.not28.i, ptr %9, ptr %.02432.i
  %.not29.i = icmp eq ptr %.02333.i, null
  %11 = getelementptr inbounds nuw i8, ptr %9, i64 56
  br i1 %.not29.i, label %12, label %13

12:                                               ; preds = %10
  tail call void @llvm.memset.p0.i64(ptr noundef nonnull align 8 dereferenceable(16) %11, i8 0, i64 16, i1 false)
  br label %16

13:                                               ; preds = %10
  store ptr null, ptr %11, align 8, !tbaa !8
  %14 = getelementptr inbounds nuw i8, ptr %9, i64 64
  store ptr %.02333.i, ptr %14, align 8, !tbaa !15
  %15 = getelementptr inbounds nuw i8, ptr %.02333.i, i64 56
  store ptr %9, ptr %15, align 8, !tbaa !8
  br label %16

16:                                               ; preds = %13, %12, %.lr.ph.i
  %.125.i = phi ptr [ %spec.select.i, %13 ], [ %spec.select.i, %12 ], [ %.02432.i, %.lr.ph.i ]
  %.1.i = phi ptr [ %9, %13 ], [ %9, %12 ], [ %.02333.i, %.lr.ph.i ]
  %indvars.iv.next.i = add nuw nsw i64 %indvars.iv.i, 1
  %exitcond.not.i = icmp eq i64 %indvars.iv.next.i, %wide.trip.count.i
  br i1 %exitcond.not.i, label %.preheader.i, label %.lr.ph.i, !llvm.loop !22

.lr.ph36.i:                                       ; preds = %.preheader.i, %.lr.ph36.i
  tail call void @_Z26tMPI_Wait_process_incomingP11tmpi_thread(ptr noundef %4)
  %17 = tail call noundef i32 @_Z15tMPI_Test_multiP11tmpi_threadP9tmpi_req_Pi(ptr noundef %4, ptr noundef %.024.lcssa.i, ptr noundef null)
  %.not.not.i = icmp eq i32 %17, 0
  br i1 %.not.not.i, label %.lr.ph36.i, label %_ZL19tMPI_Test_multi_reqP11tmpi_threadiPP9tmpi_req_ii.exit

_ZL19tMPI_Test_multi_reqP11tmpi_threadiPP9tmpi_req_ii.exit: ; preds = %.lr.ph36.i, %.preheader.i
  br i1 %6, label %.lr.ph, label %._crit_edge

.lr.ph:                                           ; preds = %_ZL19tMPI_Test_multi_reqP11tmpi_threadiPP9tmpi_req_ii.exit
  %.not24 = icmp eq ptr %2, null
  %wide.trip.count33 = zext nneg i32 %0 to i64
  br i1 %.not24, label %.lr.ph.split.us, label %.lr.ph.split

.lr.ph.split.us:                                  ; preds = %.lr.ph, %23
  %indvars.iv30 = phi i64 [ %indvars.iv.next31, %23 ], [ 0, %.lr.ph ]
  %.02126.us = phi i32 [ %.2.us, %23 ], [ 0, %.lr.ph ]
  %18 = getelementptr inbounds nuw ptr, ptr %1, i64 %indvars.iv30
  %19 = load ptr, ptr %18, align 8, !tbaa !3
  %.not.us = icmp eq ptr %19, null
  br i1 %.not.us, label %23, label %20

20:                                               ; preds = %.lr.ph.split.us
  %21 = getelementptr inbounds nuw i8, ptr %19, i64 36
  %22 = load i32, ptr %21, align 4, !tbaa !19
  %.not25.us = icmp eq i32 %22, 0
  %spec.select.us = select i1 %.not25.us, i32 %.02126.us, i32 24
  tail call void @_Z15tMPI_Return_reqP8req_listP9tmpi_req_(ptr noundef nonnull %5, ptr noundef nonnull %19)
  store ptr null, ptr %18, align 8, !tbaa !3
  br label %23

23:                                               ; preds = %20, %.lr.ph.split.us
  %.2.us = phi i32 [ %spec.select.us, %20 ], [ %.02126.us, %.lr.ph.split.us ]
  %indvars.iv.next31 = add nuw nsw i64 %indvars.iv30, 1
  %exitcond34.not = icmp eq i64 %indvars.iv.next31, %wide.trip.count33
  br i1 %exitcond34.not, label %._crit_edge, label %.lr.ph.split.us, !llvm.loop !23

.lr.ph.split:                                     ; preds = %.lr.ph, %31
  %indvars.iv = phi i64 [ %indvars.iv.next, %31 ], [ 0, %.lr.ph ]
  %.02126 = phi i32 [ %.2, %31 ], [ 0, %.lr.ph ]
  %24 = getelementptr inbounds nuw ptr, ptr %1, i64 %indvars.iv
  %25 = load ptr, ptr %24, align 8, !tbaa !3
  %.not = icmp eq ptr %25, null
  br i1 %.not, label %31, label %26

26:                                               ; preds = %.lr.ph.split
  %27 = getelementptr inbounds nuw %struct.tmpi_status_, ptr %2, i64 %indvars.iv
  tail call void @_Z15tMPI_Set_statusP9tmpi_req_P12tmpi_status_(ptr noundef nonnull %25, ptr noundef nonnull %27)
  %28 = load ptr, ptr %24, align 8, !tbaa !3
  %29 = getelementptr inbounds nuw i8, ptr %28, i64 36
  %30 = load i32, ptr %29, align 4, !tbaa !19
  %.not25 = icmp eq i32 %30, 0
  %spec.select = select i1 %.not25, i32 %.02126, i32 24
  tail call void @_Z15tMPI_Return_reqP8req_listP9tmpi_req_(ptr noundef nonnull %5, ptr noundef %28)
  store ptr null, ptr %24, align 8, !tbaa !3
  br label %31

31:                                               ; preds = %.lr.ph.split, %26
  %.2 = phi i32 [ %spec.select, %26 ], [ %.02126, %.lr.ph.split ]
  %indvars.iv.next = add nuw nsw i64 %indvars.iv, 1
  %exitcond.not = icmp eq i64 %indvars.iv.next, %wide.trip.count33
  br i1 %exitcond.not, label %._crit_edge, label %.lr.ph.split, !llvm.loop !23

._crit_edge:                                      ; preds = %31, %23, %_ZL19tMPI_Test_multi_reqP11tmpi_threadiPP9tmpi_req_ii.exit
  %.021.lcssa = phi i32 [ 0, %_ZL19tMPI_Test_multi_reqP11tmpi_threadiPP9tmpi_req_ii.exit ], [ %.2.us, %23 ], [ %.2, %31 ]
  ret i32 %.021.lcssa
}